; Function Attrs: mustprogress uwtable
define dso_local void @_ZNK16cmLocalGenerator20GetSourcesWithOutputERKNSt7__cxx1112basic_stringIcSt11char_traitsIcESaIcEEE(ptr dead_on_unwind noalias nocapture writable writeonly sret(%struct.cmSourcesWithOutput) align 8 %0, ptr noundef nonnull align 8 dereferenceable(824) %1, ptr noundef nonnull align 8 dereferenceable(32) %2) local_unnamed_addr #3 align 2 {
  %4 = tail call noundef zeroext i1 @_ZN5cmsys11SystemTools14FileIsFullPathERKNSt7__cxx1112basic_stringIcSt11char_traitsIcESaIcEEE(ptr noundef nonnull align 8 dereferenceable(32) %2)
  br i1 %4, label %11, label %5

5:                                                ; preds = %3
  %6 = getelementptr inbounds i8, ptr %0, i64 16
  store i8 0, ptr %6, align 8
  %7 = tail call noundef ptr @_ZNK16cmLocalGenerator25LinearGetTargetWithOutputERKNSt7__cxx1112basic_stringIcSt11char_traitsIcESaIcEEE(ptr noundef nonnull align 8 dereferenceable(824) %1, ptr noundef nonnull align 8 dereferenceable(32) %2)
  store ptr %7, ptr %0, align 8
  %8 = getelementptr inbounds i8, ptr %0, i64 16
  %9 = tail call noundef ptr @_ZNK16cmLocalGenerator29LinearGetSourceFileWithOutputERKNSt7__cxx1112basic_stringIcSt11char_traitsIcESaIcEEE18cmSourceOutputKindRb(ptr noundef nonnull align 8 dereferenceable(824) %1, ptr noundef nonnull align 8 dereferenceable(32) %2, i32 noundef 1, ptr noundef nonnull align 1 dereferenceable(1) %8)
  %10 = getelementptr inbounds i8, ptr %0, i64 8
  store ptr %9, ptr %10, align 8
  br label %17

11:                                               ; preds = %3
  %12 = getelementptr inbounds i8, ptr %1, i64 768
  %13 = tail call ptr @_ZNKSt10_HashtableINSt7__cxx1112basic_stringIcSt11char_traitsIcESaIcEEESt4pairIKS5_N16cmLocalGenerator11SourceEntryEESaISA_ENSt8__detail10_Select1stESt8equal_toIS5_ESt4hashIS5_ENSC_18_Mod_range_hashingENSC_20_Default_ranged_hashENSC_20_Prime_rehash_policyENSC_17_Hashtable_traitsILb1ELb0ELb1EEEE4findERS7_(ptr noundef nonnull align 8 dereferenceable(56) %12, ptr noundef nonnull align 8 dereferenceable(32) %2)
  %.not = icmp eq ptr %13, null
  br i1 %.not, label %16, label %14

14:                                               ; preds = %11
  %15 = getelementptr inbounds i8, ptr %13, i64 40
  tail call void @llvm.memcpy.p0.p0.i64(ptr noundef nonnull align 8 dereferenceable(24) %0, ptr noundef nonnull align 8 dereferenceable(24) %15, i64 24, i1 false)
  br label %17

16:                                               ; preds = %11
  tail call void @llvm.memset.p0.i64(ptr noundef nonnull align 8 dereferenceable(17) %0, i8 0, i64 17, i1 false)
  br label %17

17:                                               ; preds = %16, %14, %5
  ret void
}